target datalayout = "e-m:e-p270:32:32-p271:32:32-p272:64:64-i64:64-i128:128-f80:128-n8:16:32:64-S128"
target triple = "x86_64-pc-linux-gnu"

%struct.redisServer = type { i32, i64, ptr, ptr, ptr, i32, i32, i32, i32, i32, ptr, ptr, ptr, ptr, ptr, i32, i32, i32, i32, i64, i32, i32, i32, i32, ptr, i32, i32, [41 x i8], i32, i64, i32, i32, i32, ptr, ptr, i32, i32, i64, ptr, ptr, ptr, ptr, [2 x i32], i32, i32, i32, i32, i32, i32, [16 x ptr], i32, ptr, ptr, i32, [8 x %struct.connListener], i32, %struct.connListener, ptr, ptr, ptr, ptr, ptr, ptr, ptr, ptr, ptr, ptr, i32, ptr, i32, ptr, [3 x %struct.pause_event], [256 x i8], ptr, i64, i32, i32, [128 x i32], i32, i32, i64, i32, i32, i32, i32, i32, i64, i64, i64, i64, i64, i64, i64, i64, i64, i64, double, i64, i64, i64, i64, i64, i64, i64, i64, i64, i64, i64, i64, i64, i64, i64, i64, i64, i64, i64, i64, i64, double, i64, i64, i64, i64, i64, ptr, i64, i64, i64, %struct.malloc_stats, i64, i64, i64, i64, i64, i64, i64, i64, i64, i64, i64, i64, double, [4 x i64], i64, i64, i64, i64, [128 x i64], [128 x i64], i64, i64, [7 x %struct.anon], i64, i64, i64, i64, i64, i64, [4 x %struct.durationStats], i32, i32, i32, i32, i32, i32, i32, i32, i32, i32, i32, i32, i64, i32, i32, i32, i32, i64, i64, i32, i32, i32, i32, i32, ptr, [3 x %struct.clientBufferLimitsConfig], i32, i32, i32, ptr, i32, i32, i32, i32, i32, i32, ptr, ptr, i32, i32, i64, i64, i64, i64, i64, i32, i32, ptr, i32, i32, i64, i64, i64, i64, i64, i32, i32, i64, i32, i32, i32, i32, i32, i32, i32, i32, ptr, i32, i64, i64, i64, i64, i32, ptr, i32, ptr, i32, i32, i32, i64, i64, i64, i64, i32, i32, i32, i32, i32, i32, ptr, i32, i32, ptr, i32, i32, i32, [2 x i32], i32, %struct.redisOpArray, i32, ptr, i32, ptr, i32, i32, i32, i32, i32, i32, i32, [41 x i8], [41 x i8], i64, i64, i64, i64, i32, i32, ptr, i64, i64, %struct.replDataBuf, i64, i64, i32, i32, i32, i32, i32, i32, i32, i32, i32, i64, ptr, i64, ptr, ptr, ptr, i32, i32, ptr, ptr, i32, i32, i32, i64, i64, i64, i64, ptr, ptr, i32, ptr, i64, i32, i32, i32, i64, i32, i32, i32, i32, ptr, i32, i32, [41 x i8], i64, i32, ptr, i32, i32, i64, i64, i32, i32, i32, i32, i32, i64, [3 x i32], i32, i32, i32, [10 x i32], ptr, ptr, i32, i64, ptr, ptr, i32, i32, i32, i32, i64, i64, i64, i64, i64, i64, i64, i64, i64, i64, i32, i32, i64, i64, i32, i64, i64, i64, i64, i64, ptr, ptr, i32, ptr, i32, i32, i32, i32, i64, i64, ptr, ptr, i32, i32, i32, i32, i32, ptr, ptr, ptr, i32, i32, i32, i32, i32, i32, i32, i64, i32, i32, i64, i32, i32, i32, i32, i32, i32, i32, i64, ptr, ptr, i64, ptr, i32, %struct.aclInfo, i32, i64, i32, i32, i32, %struct.redisTLSContextConfig, ptr, ptr, ptr, ptr, ptr, i64, i32, ptr, i32, i32, i32, i64, i32, ptr }
%struct.connListener = type { [16 x i32], i32, ptr, i32, i32, ptr, ptr }
%struct.pause_event = type { i32, i64 }
%struct.malloc_stats = type { i64, i64, i64, i64, i64, i64, i64, i64, i64, i64, i64 }
%struct.anon = type { i64, i64, [16 x i64], i32 }
%struct.durationStats = type { i64, i64, i64 }
%struct.clientBufferLimitsConfig = type { i64, i64, i64 }
%struct.redisOpArray = type { ptr, i32, i32 }
%struct.replDataBuf = type { ptr, i64, i64, i64, i64 }
%struct.aclInfo = type { i64, i64, i64, i64 }
%struct.redisTLSContextConfig = type { ptr, ptr, ptr, ptr, ptr, ptr, ptr, ptr, ptr, ptr, ptr, ptr, i32, i32, i32, i32 }

@server = external global %struct.redisServer, align 8
@.str.27 = private unnamed_addr constant [62 x i8] c"Starting active defrag, frag=%.0f%%, frag_bytes=%zu, cpu=%d%%\00", align 1

; Function Attrs: nounwind uwtable
define dso_local void @computeDefragCycles(float noundef %0) #0 {
  %2 = alloca float, align 4
  %3 = alloca i64, align 8
  %4 = alloca float, align 4
  %5 = alloca i32, align 4
  %6 = alloca i32, align 4
  store float %0, ptr %2, align 4, !tbaa !180
  call void @llvm.lifetime.start.p0(i64 8, ptr %3) #10
  call void @llvm.lifetime.start.p0(i64 4, ptr %4) #10
  %7 = call float @getAllocatorFragmentation(ptr noundef %3)
  store float %7, ptr %4, align 4, !tbaa !180
  %8 = load i32, ptr getelementptr inbounds nuw (%struct.redisServer, ptr @server, i32 0, i32 23), align 4, !tbaa !194
  %9 = icmp ne i32 %8, 0
  br i1 %9, label %21, label %10

10:                                               ; preds = %1
  %11 = load float, ptr %4, align 4, !tbaa !180
  %12 = load i32, ptr getelementptr inbounds nuw (%struct.redisServer, ptr @server, i32 0, i32 172), align 8, !tbaa !195
  %13 = sitofp i32 %12 to float
  %14 = fcmp olt float %11, %13
  br i1 %14, label %19, label %15

15:                                               ; preds = %10
  %16 = load i64, ptr %3, align 8, !tbaa !39
  %17 = load i64, ptr getelementptr inbounds nuw (%struct.redisServer, ptr @server, i32 0, i32 171), align 8, !tbaa !196
  %18 = icmp ult i64 %16, %17
  br i1 %18, label %19, label %20

19:                                               ; preds = %15, %10
  store i32 1, ptr %5, align 4
  br label %82

20:                                               ; preds = %15
  br label %21

21:                                               ; preds = %20, %1
  call void @llvm.lifetime.start.p0(i64 4, ptr %6) #10
  %22 = load i32, ptr getelementptr inbounds nuw (%struct.redisServer, ptr @server, i32 0, i32 174), align 8, !tbaa !197
  %23 = sitofp i32 %22 to float
  %24 = load float, ptr %4, align 4, !tbaa !180
  %25 = load i32, ptr getelementptr inbounds nuw (%struct.redisServer, ptr @server, i32 0, i32 172), align 8, !tbaa !195
  %26 = sitofp i32 %25 to float
  %27 = fsub float %24, %26
  %28 = load i32, ptr getelementptr inbounds nuw (%struct.redisServer, ptr @server, i32 0, i32 175), align 4, !tbaa !198
  %29 = load i32, ptr getelementptr inbounds nuw (%struct.redisServer, ptr @server, i32 0, i32 174), align 8, !tbaa !197
  %30 = sub nsw i32 %28, %29
  %31 = sitofp i32 %30 to float
  %32 = fmul float %27, %31
  %33 = load i32, ptr getelementptr inbounds nuw (%struct.redisServer, ptr @server, i32 0, i32 173), align 4, !tbaa !199
  %34 = load i32, ptr getelementptr inbounds nuw (%struct.redisServer, ptr @server, i32 0, i32 172), align 8, !tbaa !195
  %35 = sub nsw i32 %33, %34
  %36 = sitofp i32 %35 to float
  %37 = fdiv float %32, %36
  %38 = fadd float %23, %37
  %39 = fptosi float %38 to i32
  store i32 %39, ptr %6, align 4, !tbaa !44
  %40 = load float, ptr %2, align 4, !tbaa !180
  %41 = load i32, ptr %6, align 4, !tbaa !44
  %42 = sitofp i32 %41 to float
  %43 = fmul float %42, %40
  %44 = fptosi float %43 to i32
  store i32 %44, ptr %6, align 4, !tbaa !44
  %45 = load i32, ptr %6, align 4, !tbaa !44
  %46 = load i32, ptr getelementptr inbounds nuw (%struct.redisServer, ptr @server, i32 0, i32 174), align 8, !tbaa !197
  %47 = icmp slt i32 %45, %46
  br i1 %47, label %48, label %50

48:                                               ; preds = %21
  %49 = load i32, ptr getelementptr inbounds nuw (%struct.redisServer, ptr @server, i32 0, i32 174), align 8, !tbaa !197
  br label %60

50:                                               ; preds = %21
  %51 = load i32, ptr %6, align 4, !tbaa !44
  %52 = load i32, ptr getelementptr inbounds nuw (%struct.redisServer, ptr @server, i32 0, i32 175), align 4, !tbaa !198
  %53 = icmp sgt i32 %51, %52
  br i1 %53, label %54, label %56

54:                                               ; preds = %50
  %55 = load i32, ptr getelementptr inbounds nuw (%struct.redisServer, ptr @server, i32 0, i32 175), align 4, !tbaa !198
  br label %58

56:                                               ; preds = %50
  %57 = load i32, ptr %6, align 4, !tbaa !44
  br label %58

58:                                               ; preds = %56, %54
  %59 = phi i32 [ %55, %54 ], [ %57, %56 ]
  br label %60

60:                                               ; preds = %58, %48
  %61 = phi i32 [ %49, %48 ], [ %59, %58 ]
  store i32 %61, ptr %6, align 4, !tbaa !44
  %62 = load i32, ptr %6, align 4, !tbaa !44
  %63 = load i32, ptr getelementptr inbounds nuw (%struct.redisServer, ptr @server, i32 0, i32 23), align 4, !tbaa !194
  %64 = icmp sgt i32 %62, %63
  br i1 %64, label %68, label %65

65:                                               ; preds = %60
  %66 = load i32, ptr getelementptr inbounds nuw (%struct.redisServer, ptr @server, i32 0, i32 170), align 4, !tbaa !200
  %67 = icmp ne i32 %66, 0
  br i1 %67, label %68, label %81

68:                                               ; preds = %65, %60
  %69 = load i32, ptr %6, align 4, !tbaa !44
  store i32 %69, ptr getelementptr inbounds nuw (%struct.redisServer, ptr @server, i32 0, i32 23), align 4, !tbaa !194
  store i32 0, ptr getelementptr inbounds nuw (%struct.redisServer, ptr @server, i32 0, i32 170), align 4, !tbaa !200
  br label %70

70:                                               ; preds = %68
  %71 = load i32, ptr getelementptr inbounds nuw (%struct.redisServer, ptr @server, i32 0, i32 159), align 8, !tbaa !182
  %72 = icmp slt i32 1, %71
  br i1 %72, label %73, label %74

73:                                               ; preds = %70
  br label %80

74:                                               ; preds = %70
  %75 = load float, ptr %4, align 4, !tbaa !180
  %76 = fpext float %75 to double
  %77 = load i64, ptr %3, align 8, !tbaa !39
  %78 = load i32, ptr %6, align 4, !tbaa !44
  call void (i32, ptr, ...) @_serverLog(i32 noundef 1, ptr noundef @.str.27, double noundef %76, i64 noundef %77, i32 noundef %78)
  br label %79

79:                                               ; preds = %74
  br label %80

80:                                               ; preds = %79, %73
  br label %81

81:                                               ; preds = %80, %65
  call void @llvm.lifetime.end.p0(i64 4, ptr %6) #10
  store i32 0, ptr %5, align 4
  br label %82

82:                                               ; preds = %81, %19
  call void @llvm.lifetime.end.p0(i64 4, ptr %4) #10
  call void @llvm.lifetime.end.p0(i64 8, ptr %3) #10
  %83 = load i32, ptr %5, align 4
  switch i32 %83, label %85 [
    i32 0, label %84
    i32 1, label %84
  ]

84:                                               ; preds = %82, %82
  ret void

85:                                               ; preds = %82
  unreachable
}