; Function Attrs: nounwind uwtable
define dso_local void @computeDefragCycles(float noundef %0) local_unnamed_addr #0 {
  %2 = alloca i64, align 8
  call void @llvm.lifetime.start.p0(i64 8, ptr nonnull %2) #10
  %3 = call float @getAllocatorFragmentation(ptr noundef nonnull %2)
  %4 = load i32, ptr getelementptr inbounds nuw (i8, ptr @server, i64 140), align 4, !tbaa !153
  %.not = icmp eq i32 %4, 0
  %.pre = load i32, ptr getelementptr inbounds nuw (i8, ptr @server, i64 6344), align 8, !tbaa !154
  %5 = sitofp i32 %.pre to float
  br i1 %.not, label %6, label %._crit_edge

6:                                                ; preds = %1
  %7 = fcmp olt float %3, %5
  br i1 %7, label %40, label %8

8:                                                ; preds = %6
  %9 = load i64, ptr %2, align 8, !tbaa !94
  %10 = load i64, ptr getelementptr inbounds nuw (i8, ptr @server, i64 6336), align 8, !tbaa !155
  %11 = icmp ult i64 %9, %10
  br i1 %11, label %40, label %._crit_edge

._crit_edge:                                      ; preds = %1, %8
  %12 = load i32, ptr getelementptr inbounds nuw (i8, ptr @server, i64 6352), align 8, !tbaa !156
  %13 = sitofp i32 %12 to float
  %14 = fsub float %3, %5
  %15 = load i32, ptr getelementptr inbounds nuw (i8, ptr @server, i64 6356), align 4, !tbaa !157
  %16 = sub nsw i32 %15, %12
  %17 = sitofp i32 %16 to float
  %18 = fmul float %14, %17
  %19 = load i32, ptr getelementptr inbounds nuw (i8, ptr @server, i64 6348), align 4, !tbaa !158
  %20 = sub nsw i32 %19, %.pre
  %21 = sitofp i32 %20 to float
  %22 = fdiv float %18, %21
  %23 = fadd float %22, %13
  %24 = fptosi float %23 to i32
  %25 = sitofp i32 %24 to float
  %26 = fmul float %0, %25
  %27 = fptosi float %26 to i32
  %28 = icmp sgt i32 %12, %27
  %29 = call i32 @llvm.smin.i32(i32 %15, i32 %27)
  %30 = select i1 %28, i32 %12, i32 %29
  %31 = icmp sgt i32 %30, %4
  %32 = load i32, ptr getelementptr inbounds nuw (i8, ptr @server, i64 6332), align 4
  %33 = icmp ne i32 %32, 0
  %or.cond = select i1 %31, i1 true, i1 %33
  br i1 %or.cond, label %34, label %40

34:                                               ; preds = %._crit_edge
  store i32 %30, ptr getelementptr inbounds nuw (i8, ptr @server, i64 140), align 4, !tbaa !153
  store i32 0, ptr getelementptr inbounds nuw (i8, ptr @server, i64 6332), align 4, !tbaa !159
  %35 = load i32, ptr getelementptr inbounds nuw (i8, ptr @server, i64 6288), align 8, !tbaa !145
  %36 = icmp sgt i32 %35, 1
  br i1 %36, label %40, label %37

37:                                               ; preds = %34
  %38 = fpext float %3 to double
  %39 = load i64, ptr %2, align 8, !tbaa !94
  call void (i32, ptr, ...) @_serverLog(i32 noundef 1, ptr noundef nonnull @.str.27, double noundef %38, i64 noundef %39, i32 noundef %30) #10
  br label %40

40:                                               ; preds = %._crit_edge, %34, %37, %6, %8
  call void @llvm.lifetime.end.p0(i64 8, ptr nonnull %2) #10
  ret void
}